target datalayout = "e-m:e-p270:32:32-p271:32:32-p272:64:64-i64:64-i128:128-f80:128-n8:16:32:64-S128"
target triple = "x86_64-pc-linux-gnu"

%struct.settings = type { i64, i32, i32, i32, ptr, i32, i32, i32, ptr, ptr, i32, double, i32, i32, i32, i8, i32, i32, i8, i32, i32, i32, i32, i32, i32, i8, i8, i8, i8, i8, i8, i8, i32, i32, double, double, i32, i32, i8, i32, i8, i8, ptr, i32, i32, i32, i32, double, double, i32, i8, i32, i32, i32, i32, i32, i8, i8, i8, ptr, i32, i32, i32, i32, i32, i32, i32, i32, i32, i32, double, i8, i32, i32, ptr, i32 }
%struct._strchunk = type { ptr, ptr, ptr, i32, i32, i32, i16, i16, i8, i8, [0 x i8] }

@settings = external global %struct.settings, align 8

; Function Attrs: nounwind uwtable
define dso_local ptr @do_item_alloc_chunk(ptr noundef %0, i64 noundef %1) #0 {
  %3 = alloca ptr, align 8
  %4 = alloca ptr, align 8
  %5 = alloca i64, align 8
  %6 = alloca i64, align 8
  %7 = alloca i32, align 4
  %8 = alloca ptr, align 8
  %9 = alloca i32, align 4
  store ptr %0, ptr %4, align 8, !tbaa !62
  store i64 %1, ptr %5, align 8, !tbaa !10
  call void @llvm.lifetime.start.p0(i64 8, ptr %6) #9
  %10 = load i64, ptr %5, align 8, !tbaa !10
  %11 = add i64 %10, 48
  store i64 %11, ptr %6, align 8, !tbaa !10
  %12 = load i64, ptr %6, align 8, !tbaa !10
  %13 = load i32, ptr getelementptr inbounds nuw (%struct.settings, ptr @settings, i32 0, i32 22), align 8, !tbaa !64
  %14 = sext i32 %13 to i64
  %15 = icmp ugt i64 %12, %14
  br i1 %15, label %16, label %19

16:                                               ; preds = %2
  %17 = load i32, ptr getelementptr inbounds nuw (%struct.settings, ptr @settings, i32 0, i32 22), align 8, !tbaa !64
  %18 = sext i32 %17 to i64
  store i64 %18, ptr %6, align 8, !tbaa !10
  br label %19

19:                                               ; preds = %16, %2
  call void @llvm.lifetime.start.p0(i64 4, ptr %7) #9
  %20 = load i64, ptr %6, align 8, !tbaa !10
  %21 = call i32 @slabs_clsid(i64 noundef %20)
  store i32 %21, ptr %7, align 4, !tbaa !4
  call void @llvm.lifetime.start.p0(i64 8, ptr %8) #9
  %22 = load i64, ptr %6, align 8, !tbaa !10
  %23 = load i32, ptr %7, align 4, !tbaa !4
  %24 = call ptr @do_item_alloc_pull(i64 noundef %22, i32 noundef %23)
  store ptr %24, ptr %8, align 8, !tbaa !62
  %25 = load ptr, ptr %8, align 8, !tbaa !62
  %26 = icmp eq ptr %25, null
  br i1 %26, label %27, label %46

27:                                               ; preds = %19
  %28 = load i64, ptr %6, align 8, !tbaa !10
  %29 = load i32, ptr getelementptr inbounds nuw (%struct.settings, ptr @settings, i32 0, i32 22), align 8, !tbaa !64
  %30 = sext i32 %29 to i64
  %31 = icmp eq i64 %28, %30
  br i1 %31, label %32, label %33

32:                                               ; preds = %27
  store ptr null, ptr %3, align 8
  store i32 1, ptr %9, align 4
  br label %78

33:                                               ; preds = %27
  %34 = load i32, ptr getelementptr inbounds nuw (%struct.settings, ptr @settings, i32 0, i32 22), align 8, !tbaa !64
  %35 = sext i32 %34 to i64
  store i64 %35, ptr %6, align 8, !tbaa !10
  %36 = load i64, ptr %6, align 8, !tbaa !10
  %37 = call i32 @slabs_clsid(i64 noundef %36)
  store i32 %37, ptr %7, align 4, !tbaa !4
  %38 = load i64, ptr %6, align 8, !tbaa !10
  %39 = load i32, ptr %7, align 4, !tbaa !4
  %40 = call ptr @do_item_alloc_pull(i64 noundef %38, i32 noundef %39)
  store ptr %40, ptr %8, align 8, !tbaa !62
  %41 = load ptr, ptr %8, align 8, !tbaa !62
  %42 = icmp eq ptr %41, null
  br i1 %42, label %43, label %44

43:                                               ; preds = %33
  store ptr null, ptr %3, align 8
  store i32 1, ptr %9, align 4
  br label %78

44:                                               ; preds = %33
  br label %45

45:                                               ; preds = %44
  br label %46

46:                                               ; preds = %45, %19
  call void @slabs_mlock()
  %47 = load ptr, ptr %4, align 8, !tbaa !62
  %48 = getelementptr inbounds nuw %struct._strchunk, ptr %47, i32 0, i32 2
  %49 = load ptr, ptr %48, align 8, !tbaa !16
  %50 = load ptr, ptr %8, align 8, !tbaa !62
  %51 = getelementptr inbounds nuw %struct._strchunk, ptr %50, i32 0, i32 2
  store ptr %49, ptr %51, align 8, !tbaa !16
  %52 = load ptr, ptr %8, align 8, !tbaa !62
  %53 = load ptr, ptr %4, align 8, !tbaa !62
  %54 = getelementptr inbounds nuw %struct._strchunk, ptr %53, i32 0, i32 0
  store ptr %52, ptr %54, align 8, !tbaa !62
  %55 = load ptr, ptr %4, align 8, !tbaa !62
  %56 = load ptr, ptr %8, align 8, !tbaa !62
  %57 = getelementptr inbounds nuw %struct._strchunk, ptr %56, i32 0, i32 1
  store ptr %55, ptr %57, align 8, !tbaa !62
  %58 = load ptr, ptr %8, align 8, !tbaa !62
  %59 = getelementptr inbounds nuw %struct._strchunk, ptr %58, i32 0, i32 0
  store ptr null, ptr %59, align 8, !tbaa !62
  %60 = load ptr, ptr %8, align 8, !tbaa !62
  %61 = getelementptr inbounds nuw %struct._strchunk, ptr %60, i32 0, i32 4
  store i32 0, ptr %61, align 4, !tbaa !4
  %62 = load i32, ptr %7, align 4, !tbaa !4
  %63 = trunc i32 %62 to i8
  %64 = load ptr, ptr %8, align 8, !tbaa !62
  %65 = getelementptr inbounds nuw %struct._strchunk, ptr %64, i32 0, i32 8
  store i8 %63, ptr %65, align 8, !tbaa !30
  %66 = load i64, ptr %6, align 8, !tbaa !10
  %67 = sub i64 %66, 48
  %68 = trunc i64 %67 to i32
  %69 = load ptr, ptr %8, align 8, !tbaa !62
  %70 = getelementptr inbounds nuw %struct._strchunk, ptr %69, i32 0, i32 3
  store i32 %68, ptr %70, align 8, !tbaa !4
  %71 = load ptr, ptr %8, align 8, !tbaa !62
  %72 = getelementptr inbounds nuw %struct._strchunk, ptr %71, i32 0, i32 7
  %73 = load i16, ptr %72, align 2, !tbaa !34
  %74 = zext i16 %73 to i32
  %75 = or i32 %74, 64
  %76 = trunc i32 %75 to i16
  store i16 %76, ptr %72, align 2, !tbaa !34
  call void @slabs_munlock()
  %77 = load ptr, ptr %8, align 8, !tbaa !62
  store ptr %77, ptr %3, align 8
  store i32 1, ptr %9, align 4
  br label %78

78:                                               ; preds = %46, %43, %32
  call void @llvm.lifetime.end.p0(i64 8, ptr %8) #9
  call void @llvm.lifetime.end.p0(i64 4, ptr %7) #9
  call void @llvm.lifetime.end.p0(i64 8, ptr %6) #9
  %79 = load ptr, ptr %3, align 8
  ret ptr %79
}