; Function Attrs: nounwind uwtable
define dso_local ptr @do_item_alloc_chunk(ptr noundef %0, i64 noundef %1) local_unnamed_addr #0 {
  %3 = add i64 %1, 48
  %4 = load i32, ptr getelementptr inbounds nuw (i8, ptr @settings, i64 120), align 8, !tbaa !59
  %5 = sext i32 %4 to i64
  %spec.select = tail call i64 @llvm.umin.i64(i64 %3, i64 %5)
  %6 = tail call i32 @slabs_clsid(i64 noundef %spec.select) #19
  %7 = tail call ptr @do_item_alloc_pull(i64 poison, i32 noundef %6)
  %8 = icmp eq ptr %7, null
  br i1 %8, label %9, label %17

9:                                                ; preds = %2
  %10 = load i32, ptr getelementptr inbounds nuw (i8, ptr @settings, i64 120), align 8, !tbaa !59
  %11 = sext i32 %10 to i64
  %12 = icmp eq i64 %spec.select, %11
  br i1 %12, label %31, label %13

13:                                               ; preds = %9
  %14 = tail call i32 @slabs_clsid(i64 noundef %11) #19
  %15 = tail call ptr @do_item_alloc_pull(i64 poison, i32 noundef %14)
  %16 = icmp eq ptr %15, null
  br i1 %16, label %31, label %17

17:                                               ; preds = %13, %2
  %.1 = phi i64 [ %11, %13 ], [ %spec.select, %2 ]
  %.025 = phi i32 [ %14, %13 ], [ %6, %2 ]
  %.0 = phi ptr [ %15, %13 ], [ %7, %2 ]
  tail call void @slabs_mlock() #19
  %18 = getelementptr inbounds nuw i8, ptr %0, i64 16
  %19 = load ptr, ptr %18, align 8, !tbaa !28
  %20 = getelementptr inbounds nuw i8, ptr %.0, i64 16
  store ptr %19, ptr %20, align 8, !tbaa !28
  store ptr %.0, ptr %0, align 8, !tbaa !60
  %21 = getelementptr inbounds nuw i8, ptr %.0, i64 8
  store ptr %0, ptr %21, align 8, !tbaa !60
  store ptr null, ptr %.0, align 8, !tbaa !60
  %22 = getelementptr inbounds nuw i8, ptr %.0, i64 28
  store i32 0, ptr %22, align 4, !tbaa !22
  %23 = trunc i32 %.025 to i8
  %24 = getelementptr inbounds nuw i8, ptr %.0, i64 40
  store i8 %23, ptr %24, align 8, !tbaa !30
  %25 = trunc i64 %.1 to i32
  %26 = add i32 %25, -48
  %27 = getelementptr inbounds nuw i8, ptr %.0, i64 24
  store i32 %26, ptr %27, align 8, !tbaa !22
  %28 = getelementptr inbounds nuw i8, ptr %.0, i64 38
  %29 = load i16, ptr %28, align 2, !tbaa !31
  %30 = or i16 %29, 64
  store i16 %30, ptr %28, align 2, !tbaa !31
  tail call void @slabs_munlock() #19
  br label %31

31:                                               ; preds = %13, %9, %17
  %.027 = phi ptr [ %.0, %17 ], [ null, %9 ], [ null, %13 ]
  ret ptr %.027
}